; ModuleID = '35/2275.c'
source_filename = "35/2275.c"
target datalayout = "e-m:e-p270:32:32-p271:32:32-p272:64:64-i64:64-f80:128-n8:16:32:64-S128"
target triple = "x86_64-pc-linux-gnu"

@.str = private unnamed_addr constant [6 x i8] c"%d,%d\00", align 1
@.str.1 = private unnamed_addr constant [3 x i8] c"%d\00", align 1
@.str.2 = private unnamed_addr constant [6 x i8] c"%d+%d\00", align 1
@.str.3 = private unnamed_addr constant [3 x i8] c"No\00", align 1

; Function Attrs: noinline nounwind uwtable
define dso_local i32 @main() #0 {
  %1 = alloca i32, align 4
  %2 = alloca [10 x [10 x i32]], align 16
  %3 = alloca i32, align 4
  %4 = alloca i32, align 4
  %5 = alloca i32, align 4
  %6 = alloca i32, align 4
  %7 = alloca i32, align 4
  %8 = alloca i32, align 4
  %9 = alloca i32, align 4
  %10 = alloca i32, align 4
  %11 = alloca i32, align 4
  %12 = alloca i32, align 4
  %13 = alloca i32, align 4
  store i32 0, i32* %1, align 4
  store i32 0, i32* %11, align 4
  %14 = call i32 (i8*, ...) @__isoc99_scanf(i8* getelementptr inbounds ([6 x i8], [6 x i8]* @.str, i64 0, i64 0), i32* %12, i32* %13)
  store i32 0, i32* %3, align 4
  br label %15

15:                                               ; preds = %36, %0
  %16 = load i32, i32* %3, align 4
  %17 = load i32, i32* %12, align 4
  %18 = icmp slt i32 %16, %17
  br i1 %18, label %19, label %39

19:                                               ; preds = %15
  store i32 0, i32* %4, align 4
  br label %20

20:                                               ; preds = %32, %19
  %21 = load i32, i32* %4, align 4
  %22 = load i32, i32* %13, align 4
  %23 = icmp slt i32 %21, %22
  br i1 %23, label %24, label %35

24:                                               ; preds = %20
  %25 = load i32, i32* %3, align 4
  %26 = sext i32 %25 to i64
  %27 = getelementptr inbounds [10 x [10 x i32]], [10 x [10 x i32]]* %2, i64 0, i64 %26
  %28 = load i32, i32* %4, align 4
  %29 = sext i32 %28 to i64
  %30 = getelementptr inbounds [10 x i32], [10 x i32]* %27, i64 0, i64 %29
  %31 = call i32 (i8*, ...) @__isoc99_scanf(i8* getelementptr inbounds ([3 x i8], [3 x i8]* @.str.1, i64 0, i64 0), i32* %30)
  br label %32

32:                                               ; preds = %24
  %33 = load i32, i32* %4, align 4
  %34 = add nsw i32 %33, 1
  store i32 %34, i32* %4, align 4
  br label %20

35:                                               ; preds = %20
  br label %36

36:                                               ; preds = %35
  %37 = load i32, i32* %3, align 4
  %38 = add nsw i32 %37, 1
  store i32 %38, i32* %3, align 4
  br label %15

39:                                               ; preds = %15
  store i32 0, i32* %3, align 4
  br label %40

40:                                               ; preds = %116, %39
  %41 = load i32, i32* %3, align 4
  %42 = load i32, i32* %12, align 4
  %43 = icmp slt i32 %41, %42
  br i1 %43, label %44, label %119

44:                                               ; preds = %40
  %45 = load i32, i32* %3, align 4
  %46 = sext i32 %45 to i64
  %47 = getelementptr inbounds [10 x [10 x i32]], [10 x [10 x i32]]* %2, i64 0, i64 %46
  %48 = getelementptr inbounds [10 x i32], [10 x i32]* %47, i64 0, i64 0
  %49 = load i32, i32* %48, align 8
  store i32 %49, i32* %9, align 4
  store i32 0, i32* %5, align 4
  br label %50

50:                                               ; preds = %74, %44
  %51 = load i32, i32* %5, align 4
  %52 = load i32, i32* %13, align 4
  %53 = icmp slt i32 %51, %52
  br i1 %53, label %54, label %77

54:                                               ; preds = %50
  %55 = load i32, i32* %3, align 4
  %56 = sext i32 %55 to i64
  %57 = getelementptr inbounds [10 x [10 x i32]], [10 x [10 x i32]]* %2, i64 0, i64 %56
  %58 = load i32, i32* %5, align 4
  %59 = sext i32 %58 to i64
  %60 = getelementptr inbounds [10 x i32], [10 x i32]* %57, i64 0, i64 %59
  %61 = load i32, i32* %60, align 4
  %62 = load i32, i32* %9, align 4
  %63 = icmp sge i32 %61, %62
  br i1 %63, label %64, label %73

64:                                               ; preds = %54
  %65 = load i32, i32* %3, align 4
  %66 = sext i32 %65 to i64
  %67 = getelementptr inbounds [10 x [10 x i32]], [10 x [10 x i32]]* %2, i64 0, i64 %66
  %68 = load i32, i32* %5, align 4
  %69 = sext i32 %68 to i64
  %70 = getelementptr inbounds [10 x i32], [10 x i32]* %67, i64 0, i64 %69
  %71 = load i32, i32* %70, align 4
  store i32 %71, i32* %9, align 4
  %72 = load i32, i32* %5, align 4
  store i32 %72, i32* %8, align 4
  br label %73

73:                                               ; preds = %64, %54
  br label %74

74:                                               ; preds = %73
  %75 = load i32, i32* %5, align 4
  %76 = add nsw i32 %75, 1
  store i32 %76, i32* %5, align 4
  br label %50

77:                                               ; preds = %50
  store i32 0, i32* %7, align 4
  %78 = load i32, i32* %3, align 4
  %79 = sext i32 %78 to i64
  %80 = getelementptr inbounds [10 x [10 x i32]], [10 x [10 x i32]]* %2, i64 0, i64 %79
  %81 = load i32, i32* %8, align 4
  %82 = sext i32 %81 to i64
  %83 = getelementptr inbounds [10 x i32], [10 x i32]* %80, i64 0, i64 %82
  %84 = load i32, i32* %83, align 4
  store i32 %84, i32* %10, align 4
  store i32 0, i32* %6, align 4
  br label %85

85:                                               ; preds = %105, %77
  %86 = load i32, i32* %6, align 4
  %87 = load i32, i32* %12, align 4
  %88 = icmp slt i32 %86, %87
  br i1 %88, label %89, label %108

89:                                               ; preds = %85
  %90 = load i32, i32* %6, align 4
  %91 = sext i32 %90 to i64
  %92 = getelementptr inbounds [10 x [10 x i32]], [10 x [10 x i32]]* %2, i64 0, i64 %91
  %93 = load i32, i32* %8, align 4
  %94 = sext i32 %93 to i64
  %95 = getelementptr inbounds [10 x i32], [10 x i32]* %92, i64 0, i64 %94
  %96 = load i32, i32* %95, align 4
  %97 = load i32, i32* %10, align 4
  %98 = icmp sle i32 %96, %97
  br i1 %98, label %99, label %104

99:                                               ; preds = %89
  %100 = load i32, i32* %6, align 4
  %101 = load i32, i32* %3, align 4
  %102 = icmp ne i32 %100, %101
  br i1 %102, label %103, label %104

103:                                              ; preds = %99
  store i32 1, i32* %7, align 4
  br label %104

104:                                              ; preds = %103, %99, %89
  br label %105

105:                                              ; preds = %104
  %106 = load i32, i32* %6, align 4
  %107 = add nsw i32 %106, 1
  store i32 %107, i32* %6, align 4
  br label %85

108:                                              ; preds = %85
  %109 = load i32, i32* %7, align 4
  %110 = icmp eq i32 %109, 0
  br i1 %110, label %111, label %115

111:                                              ; preds = %108
  store i32 1, i32* %11, align 4
  %112 = load i32, i32* %3, align 4
  %113 = load i32, i32* %8, align 4
  %114 = call i32 (i8*, ...) @printf(i8* getelementptr inbounds ([6 x i8], [6 x i8]* @.str.2, i64 0, i64 0), i32 %112, i32 %113)
  br label %115

115:                                              ; preds = %111, %108
  br label %116

116:                                              ; preds = %115
  %117 = load i32, i32* %3, align 4
  %118 = add nsw i32 %117, 1
  store i32 %118, i32* %3, align 4
  br label %40

119:                                              ; preds = %40
  %120 = load i32, i32* %11, align 4
  %121 = icmp eq i32 %120, 0
  br i1 %121, label %122, label %124

122:                                              ; preds = %119
  %123 = call i32 (i8*, ...) @printf(i8* getelementptr inbounds ([3 x i8], [3 x i8]* @.str.3, i64 0, i64 0))
  br label %124

124:                                              ; preds = %122, %119
  ret i32 0
}

declare dso_local i32 @__isoc99_scanf(i8*, ...) #1

declare dso_local i32 @printf(i8*, ...) #1


!llvm.module.flags = !{!0}
!llvm.ident = !{!1}

!0 = !{i32 1, !"wchar_size", i32 4}
!1 = !{!"clang version 10.0.0-4ubuntu1 "}
